target datalayout = "e-m:e-p270:32:32-p271:32:32-p272:64:64-i64:64-i128:128-f80:128-n8:16:32:64-S128"
target triple = "x86_64-pc-linux-gnu"

%class.OopMapBlocksBuilder = type { ptr, i32, i32 }

; Function Attrs: mustprogress nounwind uwtable
define hidden void @_ZN19OopMapBlocksBuilder27initialize_inherited_blocksEP11OopMapBlockj(ptr noundef nonnull align 8 dereferenceable(16) %0, ptr noundef %1, i32 noundef %2) #1 align 2 {
  %4 = alloca ptr, align 8
  %5 = alloca ptr, align 8
  %6 = alloca i32, align 4
  store ptr %0, ptr %4, align 8
  store ptr %1, ptr %5, align 8
  store i32 %2, ptr %6, align 4
  %7 = load ptr, ptr %4, align 8
  %8 = getelementptr inbounds %class.OopMapBlocksBuilder, ptr %7, i32 0, i32 0
  %9 = load ptr, ptr %8, align 8
  %10 = load ptr, ptr %5, align 8
  %11 = load i32, ptr %6, align 4
  %12 = zext i32 %11 to i64
  %13 = mul i64 8, %12
  call void @llvm.memcpy.p0.p0.i64(ptr align 4 %9, ptr align 4 %10, i64 %13, i1 false)
  %14 = load i32, ptr %6, align 4
  %15 = getelementptr inbounds %class.OopMapBlocksBuilder, ptr %7, i32 0, i32 1
  %16 = load i32, ptr %15, align 8
  %17 = add i32 %16, %14
  store i32 %17, ptr %15, align 8
  ret void
}