; Function Attrs: mustprogress nofree norecurse nosync nounwind willreturn memory(readwrite, inaccessiblemem: none) uwtable
define hidden void @_ZN19OopMapBlocksBuilder27initialize_inherited_blocksEP11OopMapBlockj(ptr nocapture noundef nonnull align 8 dereferenceable(16) %0, ptr nocapture noundef readonly %1, i32 noundef %2) local_unnamed_addr #11 align 2 {
  %4 = load ptr, ptr %0, align 8
  %5 = zext i32 %2 to i64
  %6 = shl nuw nsw i64 %5, 3
  tail call void @llvm.memcpy.p0.p0.i64(ptr align 4 %4, ptr align 4 %1, i64 %6, i1 false)
  %7 = getelementptr inbounds i8, ptr %0, i64 8
  %8 = load i32, ptr %7, align 8
  %9 = add i32 %8, %2
  store i32 %9, ptr %7, align 8
  ret void
}